target datalayout = "e-m:e-p270:32:32-p271:32:32-p272:64:64-i64:64-i128:128-f80:128-n8:16:32:64-S128"
target triple = "x86_64-pc-linux-gnu"

@plugin_type = external constant [0 x i8], align 1
@.str.56 = private unnamed_addr constant [34 x i8] c"%s: %s: mpi/pmi2: in _handle_ring\00", align 1
@__func__._handle_ring = private unnamed_addr constant [13 x i8] c"_handle_ring\00", align 1
@.str.57 = private unnamed_addr constant [57 x i8] c"mpi/pmi2: received ring_in message from unknown child %d\00", align 1
@.str.58 = private unnamed_addr constant [35 x i8] c"%s: %s: mpi/pmi2: out _handle_ring\00", align 1
@.str.59 = private unnamed_addr constant [43 x i8] c"mpi/pmi2: failed to unpack ring in message\00", align 1

; Function Attrs: nounwind uwtable
define internal i32 @_handle_ring(i32 noundef %0, ptr noundef %1) #0 {
  %3 = alloca i32, align 4
  %4 = alloca i32, align 4
  %5 = alloca ptr, align 8
  %6 = alloca i32, align 4
  %7 = alloca i32, align 4
  %8 = alloca ptr, align 8
  %9 = alloca ptr, align 8
  %10 = alloca i32, align 4
  %11 = alloca i32, align 4
  %12 = alloca i32, align 4
  %13 = alloca i32, align 4
  %14 = alloca i32, align 4
  store i32 %0, ptr %4, align 4
  store ptr %1, ptr %5, align 8
  call void @llvm.lifetime.start.p0(i64 4, ptr %6) #6
  call void @llvm.lifetime.start.p0(i64 4, ptr %7) #6
  call void @llvm.lifetime.start.p0(i64 8, ptr %8) #6
  store ptr null, ptr %8, align 8
  call void @llvm.lifetime.start.p0(i64 8, ptr %9) #6
  store ptr null, ptr %9, align 8
  call void @llvm.lifetime.start.p0(i64 4, ptr %10) #6
  call void @llvm.lifetime.start.p0(i64 4, ptr %11) #6
  store i32 0, ptr %11, align 4
  br label %15

15:                                               ; preds = %2
  br label %16

16:                                               ; preds = %15
  %17 = call i32 @slurm_get_log_level()
  %18 = icmp sge i32 %17, 7
  br i1 %18, label %19, label %20

19:                                               ; preds = %16
  call void (i32, ptr, ...) @slurm_log_var(i32 noundef 7, ptr noundef @.str.56, ptr noundef @plugin_type, ptr noundef @__func__._handle_ring)
  br label %20

20:                                               ; preds = %19, %16
  br label %21

21:                                               ; preds = %20
  br label %22

22:                                               ; preds = %21
  br label %23

23:                                               ; preds = %22
  br label %24

24:                                               ; preds = %23
  br label %25

25:                                               ; preds = %24
  %26 = load ptr, ptr %5, align 8
  %27 = call i32 @slurm_unpack32(ptr noundef %6, ptr noundef %26)
  %28 = icmp ne i32 %27, 0
  br i1 %28, label %29, label %30

29:                                               ; preds = %25
  br label %88

30:                                               ; preds = %25
  br label %31

31:                                               ; preds = %30
  br label %32

32:                                               ; preds = %31
  br label %33

33:                                               ; preds = %32
  %34 = load ptr, ptr %5, align 8
  %35 = call i32 @slurm_unpack32(ptr noundef %7, ptr noundef %34)
  %36 = icmp ne i32 %35, 0
  br i1 %36, label %37, label %38

37:                                               ; preds = %33
  br label %88

38:                                               ; preds = %33
  br label %39

39:                                               ; preds = %38
  br label %40

40:                                               ; preds = %39
  br label %41

41:                                               ; preds = %40
  call void @llvm.lifetime.start.p0(i64 4, ptr %12) #6
  %42 = load ptr, ptr %5, align 8
  %43 = call i32 @slurm_unpackstr_xmalloc_chooser(ptr noundef %8, ptr noundef %12, ptr noundef %42)
  %44 = icmp ne i32 %43, 0
  br i1 %44, label %45, label %46

45:                                               ; preds = %41
  store i32 8, ptr %13, align 4
  br label %47

46:                                               ; preds = %41
  store i32 0, ptr %13, align 4
  br label %47

47:                                               ; preds = %45, %46
  call void @llvm.lifetime.end.p0(i64 4, ptr %12) #6
  %48 = load i32, ptr %13, align 4
  switch i32 %48, label %90 [
    i32 0, label %49
    i32 8, label %88
  ]

49:                                               ; preds = %47
  br label %50

50:                                               ; preds = %49
  br label %51

51:                                               ; preds = %50
  br label %52

52:                                               ; preds = %51
  call void @llvm.lifetime.start.p0(i64 4, ptr %14) #6
  %53 = load ptr, ptr %5, align 8
  %54 = call i32 @slurm_unpackstr_xmalloc_chooser(ptr noundef %9, ptr noundef %14, ptr noundef %53)
  %55 = icmp ne i32 %54, 0
  br i1 %55, label %56, label %57

56:                                               ; preds = %52
  store i32 8, ptr %13, align 4
  br label %58

57:                                               ; preds = %52
  store i32 0, ptr %13, align 4
  br label %58

58:                                               ; preds = %56, %57
  call void @llvm.lifetime.end.p0(i64 4, ptr %14) #6
  %59 = load i32, ptr %13, align 4
  switch i32 %59, label %90 [
    i32 0, label %60
    i32 8, label %88
  ]

60:                                               ; preds = %58
  br label %61

61:                                               ; preds = %60
  br label %62

62:                                               ; preds = %61
  %63 = load i32, ptr %6, align 4
  %64 = call i32 @pmix_ring_id_by_rank(i32 noundef %63)
  store i32 %64, ptr %10, align 4
  %65 = load i32, ptr %10, align 4
  %66 = icmp eq i32 %65, -1
  br i1 %66, label %67, label %70

67:                                               ; preds = %62
  %68 = load i32, ptr %6, align 4
  %69 = call i32 (ptr, ...) @slurm_error(ptr noundef @.str.57, i32 noundef %68)
  store i32 -1, ptr %11, align 4
  br label %76

70:                                               ; preds = %62
  %71 = load i32, ptr %10, align 4
  %72 = load i32, ptr %7, align 4
  %73 = load ptr, ptr %8, align 8
  %74 = load ptr, ptr %9, align 8
  %75 = call i32 @pmix_ring_in(i32 noundef %71, i32 noundef %72, ptr noundef %73, ptr noundef %74)
  store i32 %75, ptr %11, align 4
  br label %76

76:                                               ; preds = %88, %70, %67
  call void @slurm_xfree(ptr noundef %8)
  call void @slurm_xfree(ptr noundef %9)
  br label %77

77:                                               ; preds = %76
  br label %78

78:                                               ; preds = %77
  %79 = call i32 @slurm_get_log_level()
  %80 = icmp sge i32 %79, 7
  br i1 %80, label %81, label %82

81:                                               ; preds = %78
  call void (i32, ptr, ...) @slurm_log_var(i32 noundef 7, ptr noundef @.str.58, ptr noundef @plugin_type, ptr noundef @__func__._handle_ring)
  br label %82

82:                                               ; preds = %81, %78
  br label %83

83:                                               ; preds = %82
  br label %84

84:                                               ; preds = %83
  br label %85

85:                                               ; preds = %84
  br label %86

86:                                               ; preds = %85
  %87 = load i32, ptr %11, align 4
  store i32 %87, ptr %3, align 4
  store i32 1, ptr %13, align 4
  br label %90

88:                                               ; preds = %58, %47, %37, %29
  %89 = call i32 (ptr, ...) @slurm_error(ptr noundef @.str.59)
  store i32 -1, ptr %11, align 4
  br label %76

90:                                               ; preds = %86, %58, %47
  call void @llvm.lifetime.end.p0(i64 4, ptr %11) #6
  call void @llvm.lifetime.end.p0(i64 4, ptr %10) #6
  call void @llvm.lifetime.end.p0(i64 8, ptr %9) #6
  call void @llvm.lifetime.end.p0(i64 8, ptr %8) #6
  call void @llvm.lifetime.end.p0(i64 4, ptr %7) #6
  call void @llvm.lifetime.end.p0(i64 4, ptr %6) #6
  %91 = load i32, ptr %3, align 4
  ret i32 %91
}