; Function Attrs: nounwind uwtable
define internal i32 @_handle_ring(i32 %0, ptr noundef %1) #0 {
  %3 = alloca i32, align 4
  %4 = alloca i32, align 4
  %5 = alloca ptr, align 8
  %6 = alloca ptr, align 8
  %7 = alloca i32, align 4
  %8 = alloca i32, align 4
  call void @llvm.lifetime.start.p0(i64 4, ptr nonnull %3) #7
  call void @llvm.lifetime.start.p0(i64 4, ptr nonnull %4) #7
  call void @llvm.lifetime.start.p0(i64 8, ptr nonnull %5) #7
  store ptr null, ptr %5, align 8
  call void @llvm.lifetime.start.p0(i64 8, ptr nonnull %6) #7
  store ptr null, ptr %6, align 8
  %9 = tail call i32 @slurm_get_log_level() #7
  %10 = icmp sgt i32 %9, 6
  br i1 %10, label %11, label %12

11:                                               ; preds = %2
  tail call void (i32, ptr, ...) @slurm_log_var(i32 noundef 7, ptr noundef nonnull @.str.56, ptr noundef nonnull @plugin_type, ptr noundef nonnull @__func__._handle_ring) #7
  br label %12

12:                                               ; preds = %2, %11
  %13 = call i32 @slurm_unpack32(ptr noundef nonnull %3, ptr noundef %1) #7
  %.not = icmp eq i32 %13, 0
  br i1 %.not, label %14, label %36

14:                                               ; preds = %12
  %15 = call i32 @slurm_unpack32(ptr noundef nonnull %4, ptr noundef %1) #7
  %.not12 = icmp eq i32 %15, 0
  br i1 %.not12, label %16, label %36

16:                                               ; preds = %14
  call void @llvm.lifetime.start.p0(i64 4, ptr nonnull %7) #7
  %17 = call i32 @slurm_unpackstr_xmalloc_chooser(ptr noundef nonnull %5, ptr noundef nonnull %7, ptr noundef %1) #7
  %.not13 = icmp eq i32 %17, 0
  call void @llvm.lifetime.end.p0(i64 4, ptr nonnull %7) #7
  br i1 %.not13, label %18, label %36

18:                                               ; preds = %16
  call void @llvm.lifetime.start.p0(i64 4, ptr nonnull %8) #7
  %19 = call i32 @slurm_unpackstr_xmalloc_chooser(ptr noundef nonnull %6, ptr noundef nonnull %8, ptr noundef %1) #7
  %.not14 = icmp eq i32 %19, 0
  call void @llvm.lifetime.end.p0(i64 4, ptr nonnull %8) #7
  br i1 %.not14, label %20, label %36

20:                                               ; preds = %18
  %21 = load i32, ptr %3, align 4
  %22 = call i32 @pmix_ring_id_by_rank(i32 noundef %21) #7
  %23 = icmp eq i32 %22, -1
  br i1 %23, label %24, label %27

24:                                               ; preds = %20
  %25 = load i32, ptr %3, align 4
  %26 = call i32 (ptr, ...) @slurm_error(ptr noundef nonnull @.str.57, i32 noundef %25) #7
  br label %32

27:                                               ; preds = %20
  %28 = load i32, ptr %4, align 4
  %29 = load ptr, ptr %5, align 8
  %30 = load ptr, ptr %6, align 8
  %31 = call i32 @pmix_ring_in(i32 noundef %22, i32 noundef %28, ptr noundef %29, ptr noundef %30) #7
  br label %32

32:                                               ; preds = %36, %27, %24
  %.09 = phi i32 [ -1, %36 ], [ -1, %24 ], [ %31, %27 ]
  call void @slurm_xfree(ptr noundef nonnull %5) #7
  call void @slurm_xfree(ptr noundef nonnull %6) #7
  %33 = call i32 @slurm_get_log_level() #7
  %34 = icmp sgt i32 %33, 6
  br i1 %34, label %35, label %38

35:                                               ; preds = %32
  call void (i32, ptr, ...) @slurm_log_var(i32 noundef 7, ptr noundef nonnull @.str.58, ptr noundef nonnull @plugin_type, ptr noundef nonnull @__func__._handle_ring) #7
  br label %38

36:                                               ; preds = %18, %16, %14, %12
  %37 = call i32 (ptr, ...) @slurm_error(ptr noundef nonnull @.str.59) #7
  br label %32

38:                                               ; preds = %32, %35
  call void @llvm.lifetime.end.p0(i64 8, ptr nonnull %6) #7
  call void @llvm.lifetime.end.p0(i64 8, ptr nonnull %5) #7
  call void @llvm.lifetime.end.p0(i64 4, ptr nonnull %4) #7
  call void @llvm.lifetime.end.p0(i64 4, ptr nonnull %3) #7
  ret i32 %.09
}